; ModuleID = '51/769.c'
source_filename = "51/769.c"
target datalayout = "e-m:e-p270:32:32-p271:32:32-p272:64:64-i64:64-f80:128-n8:16:32:64-S128"
target triple = "x86_64-pc-linux-gnu"

@.str = private unnamed_addr constant [3 x i8] c"%d\00", align 1
@.str.1 = private unnamed_addr constant [3 x i8] c"%s\00", align 1
@.str.2 = private unnamed_addr constant [4 x i8] c"NO\0A\00", align 1
@.str.3 = private unnamed_addr constant [4 x i8] c"%d\0A\00", align 1

; Function Attrs: noinline nounwind uwtable
define dso_local i32 @main() #0 {
  %1 = alloca i32, align 4
  %2 = alloca [500 x i32], align 16
  %3 = alloca i32, align 4
  %4 = alloca i32, align 4
  %5 = alloca i32, align 4
  %6 = alloca i32, align 4
  %7 = alloca [500 x i8], align 16
  %8 = alloca [500 x [5 x i8]], align 16
  store i32 0, i32* %1, align 4
  %9 = bitcast [500 x i32]* %2 to i8*
  call void @llvm.memset.p0i8.i64(i8* align 16 %9, i8 0, i64 2000, i1 false)
  %10 = bitcast [500 x [5 x i8]]* %8 to i8*
  call void @llvm.memset.p0i8.i64(i8* align 16 %10, i8 0, i64 2500, i1 false)
  %11 = call i32 (i8*, ...) @__isoc99_scanf(i8* getelementptr inbounds ([3 x i8], [3 x i8]* @.str, i64 0, i64 0), i32* %5)
  %12 = getelementptr inbounds [500 x i8], [500 x i8]* %7, i64 0, i64 0
  %13 = call i32 (i8*, ...) @__isoc99_scanf(i8* getelementptr inbounds ([3 x i8], [3 x i8]* @.str.1, i64 0, i64 0), i8* %12)
  %14 = getelementptr inbounds [500 x i8], [500 x i8]* %7, i64 0, i64 0
  %15 = call i64 @strlen(i8* %14) #4
  %16 = trunc i64 %15 to i32
  store i32 %16, i32* %6, align 4
  store i32 0, i32* %3, align 4
  br label %17

17:                                               ; preds = %46, %0
  %18 = load i32, i32* %3, align 4
  %19 = load i32, i32* %6, align 4
  %20 = load i32, i32* %5, align 4
  %21 = sub nsw i32 %19, %20
  %22 = add nsw i32 %21, 1
  %23 = icmp slt i32 %18, %22
  br i1 %23, label %24, label %49

24:                                               ; preds = %17
  store i32 0, i32* %4, align 4
  br label %25

25:                                               ; preds = %42, %24
  %26 = load i32, i32* %4, align 4
  %27 = load i32, i32* %5, align 4
  %28 = icmp slt i32 %26, %27
  br i1 %28, label %29, label %45

29:                                               ; preds = %25
  %30 = load i32, i32* %3, align 4
  %31 = load i32, i32* %4, align 4
  %32 = add nsw i32 %30, %31
  %33 = sext i32 %32 to i64
  %34 = getelementptr inbounds [500 x i8], [500 x i8]* %7, i64 0, i64 %33
  %35 = load i8, i8* %34, align 1
  %36 = load i32, i32* %3, align 4
  %37 = sext i32 %36 to i64
  %38 = getelementptr inbounds [500 x [5 x i8]], [500 x [5 x i8]]* %8, i64 0, i64 %37
  %39 = load i32, i32* %4, align 4
  %40 = sext i32 %39 to i64
  %41 = getelementptr inbounds [5 x i8], [5 x i8]* %38, i64 0, i64 %40
  store i8 %35, i8* %41, align 1
  br label %42

42:                                               ; preds = %29
  %43 = load i32, i32* %4, align 4
  %44 = add nsw i32 %43, 1
  store i32 %44, i32* %4, align 4
  br label %25

45:                                               ; preds = %25
  br label %46

46:                                               ; preds = %45
  %47 = load i32, i32* %3, align 4
  %48 = add nsw i32 %47, 1
  store i32 %48, i32* %3, align 4
  br label %17

49:                                               ; preds = %17
  store i32 0, i32* %3, align 4
  br label %50

50:                                               ; preds = %88, %49
  %51 = load i32, i32* %3, align 4
  %52 = load i32, i32* %6, align 4
  %53 = load i32, i32* %5, align 4
  %54 = sub nsw i32 %52, %53
  %55 = add nsw i32 %54, 1
  %56 = icmp slt i32 %51, %55
  br i1 %56, label %57, label %91

57:                                               ; preds = %50
  %58 = load i32, i32* %3, align 4
  store i32 %58, i32* %4, align 4
  br label %59

59:                                               ; preds = %84, %57
  %60 = load i32, i32* %4, align 4
  %61 = load i32, i32* %6, align 4
  %62 = load i32, i32* %5, align 4
  %63 = sub nsw i32 %61, %62
  %64 = add nsw i32 %63, 1
  %65 = icmp slt i32 %60, %64
  br i1 %65, label %66, label %87

66:                                               ; preds = %59
  %67 = load i32, i32* %3, align 4
  %68 = sext i32 %67 to i64
  %69 = getelementptr inbounds [500 x [5 x i8]], [500 x [5 x i8]]* %8, i64 0, i64 %68
  %70 = getelementptr inbounds [5 x i8], [5 x i8]* %69, i64 0, i64 0
  %71 = load i32, i32* %4, align 4
  %72 = sext i32 %71 to i64
  %73 = getelementptr inbounds [500 x [5 x i8]], [500 x [5 x i8]]* %8, i64 0, i64 %72
  %74 = getelementptr inbounds [5 x i8], [5 x i8]* %73, i64 0, i64 0
  %75 = call i32 @strcmp(i8* %70, i8* %74) #4
  %76 = icmp eq i32 0, %75
  br i1 %76, label %77, label %83

77:                                               ; preds = %66
  %78 = load i32, i32* %3, align 4
  %79 = sext i32 %78 to i64
  %80 = getelementptr inbounds [500 x i32], [500 x i32]* %2, i64 0, i64 %79
  %81 = load i32, i32* %80, align 4
  %82 = add nsw i32 %81, 1
  store i32 %82, i32* %80, align 4
  br label %83

83:                                               ; preds = %77, %66
  br label %84

84:                                               ; preds = %83
  %85 = load i32, i32* %4, align 4
  %86 = add nsw i32 %85, 1
  store i32 %86, i32* %4, align 4
  br label %59

87:                                               ; preds = %59
  br label %88

88:                                               ; preds = %87
  %89 = load i32, i32* %3, align 4
  %90 = add nsw i32 %89, 1
  store i32 %90, i32* %3, align 4
  br label %50

91:                                               ; preds = %50
  %92 = getelementptr inbounds [500 x i32], [500 x i32]* %2, i64 0, i64 0
  %93 = load i32, i32* %92, align 16
  store i32 %93, i32* %4, align 4
  store i32 0, i32* %3, align 4
  br label %94

94:                                               ; preds = %114, %91
  %95 = load i32, i32* %3, align 4
  %96 = load i32, i32* %6, align 4
  %97 = load i32, i32* %5, align 4
  %98 = sub nsw i32 %96, %97
  %99 = add nsw i32 %98, 1
  %100 = icmp slt i32 %95, %99
  br i1 %100, label %101, label %117

101:                                              ; preds = %94
  %102 = load i32, i32* %3, align 4
  %103 = sext i32 %102 to i64
  %104 = getelementptr inbounds [500 x i32], [500 x i32]* %2, i64 0, i64 %103
  %105 = load i32, i32* %104, align 4
  %106 = load i32, i32* %4, align 4
  %107 = icmp sgt i32 %105, %106
  br i1 %107, label %108, label %113

108:                                              ; preds = %101
  %109 = load i32, i32* %3, align 4
  %110 = sext i32 %109 to i64
  %111 = getelementptr inbounds [500 x i32], [500 x i32]* %2, i64 0, i64 %110
  %112 = load i32, i32* %111, align 4
  store i32 %112, i32* %4, align 4
  br label %113

113:                                              ; preds = %108, %101
  br label %114

114:                                              ; preds = %113
  %115 = load i32, i32* %3, align 4
  %116 = add nsw i32 %115, 1
  store i32 %116, i32* %3, align 4
  br label %94

117:                                              ; preds = %94
  %118 = load i32, i32* %4, align 4
  %119 = icmp eq i32 %118, 1
  br i1 %119, label %120, label %122

120:                                              ; preds = %117
  %121 = call i32 (i8*, ...) @printf(i8* getelementptr inbounds ([4 x i8], [4 x i8]* @.str.2, i64 0, i64 0))
  br label %150

122:                                              ; preds = %117
  %123 = load i32, i32* %4, align 4
  %124 = call i32 (i8*, ...) @printf(i8* getelementptr inbounds ([4 x i8], [4 x i8]* @.str.3, i64 0, i64 0), i32 %123)
  store i32 0, i32* %3, align 4
  br label %125

125:                                              ; preds = %146, %122
  %126 = load i32, i32* %3, align 4
  %127 = load i32, i32* %6, align 4
  %128 = load i32, i32* %5, align 4
  %129 = sub nsw i32 %127, %128
  %130 = sub nsw i32 %129, 1
  %131 = icmp slt i32 %126, %130
  br i1 %131, label %132, label %149

132:                                              ; preds = %125
  %133 = load i32, i32* %3, align 4
  %134 = sext i32 %133 to i64
  %135 = getelementptr inbounds [500 x i32], [500 x i32]* %2, i64 0, i64 %134
  %136 = load i32, i32* %135, align 4
  %137 = load i32, i32* %4, align 4
  %138 = icmp eq i32 %136, %137
  br i1 %138, label %139, label %145

139:                                              ; preds = %132
  %140 = load i32, i32* %3, align 4
  %141 = sext i32 %140 to i64
  %142 = getelementptr inbounds [500 x [5 x i8]], [500 x [5 x i8]]* %8, i64 0, i64 %141
  %143 = getelementptr inbounds [5 x i8], [5 x i8]* %142, i64 0, i64 0
  %144 = call i32 @puts(i8* %143)
  br label %145

145:                                              ; preds = %139, %132
  br label %146

146:                                              ; preds = %145
  %147 = load i32, i32* %3, align 4
  %148 = add nsw i32 %147, 1
  store i32 %148, i32* %3, align 4
  br label %125

149:                                              ; preds = %125
  br label %150

150:                                              ; preds = %149, %120
  ret i32 0
}

; Function Attrs: argmemonly nounwind willreturn
declare void @llvm.memset.p0i8.i64(i8* nocapture writeonly, i8, i64, i1 immarg) #1

declare dso_local i32 @__isoc99_scanf(i8*, ...) #2

; Function Attrs: nounwind readonly
declare dso_local i64 @strlen(i8*) #3

; Function Attrs: nounwind readonly
declare dso_local i32 @strcmp(i8*, i8*) #3

declare dso_local i32 @printf(i8*, ...) #2

declare dso_local i32 @puts(i8*) #2


!llvm.module.flags = !{!0}
!llvm.ident = !{!1}

!0 = !{i32 1, !"wchar_size", i32 4}
!1 = !{!"clang version 10.0.0-4ubuntu1 "}
