; ModuleID = 'source-C-CXX/50/769.c'
source_filename = "source-C-CXX/50/769.c"
target datalayout = "e-m:e-p270:32:32-p271:32:32-p272:64:64-i64:64-f80:128-n8:16:32:64-S128"
target triple = "x86_64-pc-linux-gnu"

@.str = private unnamed_addr constant [3 x i8] c"%d\00", align 1
@.str.1 = private unnamed_addr constant [3 x i8] c"%s\00", align 1
@.str.3 = private unnamed_addr constant [4 x i8] c"%d\0A\00", align 1
@str = private unnamed_addr constant [3 x i8] c"NO\00", align 1

; Function Attrs: nofree nounwind sspstrong uwtable
define dso_local i32 @main() local_unnamed_addr #0 {
  %1 = alloca [500 x i32], align 16
  %2 = alloca i32, align 4
  %3 = alloca [500 x i8], align 16
  %4 = alloca [500 x [5 x i8]], align 16
  %5 = bitcast [500 x i32]* %1 to i8*
  call void @llvm.lifetime.start.p0i8(i64 2000, i8* nonnull %5) #7
  call void @llvm.memset.p0i8.i64(i8* noundef nonnull align 16 dereferenceable(2000) %5, i8 0, i64 2000, i1 false)
  %6 = bitcast i32* %2 to i8*
  call void @llvm.lifetime.start.p0i8(i64 4, i8* nonnull %6) #7
  %7 = getelementptr inbounds [500 x i8], [500 x i8]* %3, i64 0, i64 0
  call void @llvm.lifetime.start.p0i8(i64 500, i8* nonnull %7) #7
  %8 = getelementptr inbounds [500 x [5 x i8]], [500 x [5 x i8]]* %4, i64 0, i64 0, i64 0
  call void @llvm.lifetime.start.p0i8(i64 2500, i8* nonnull %8) #7
  call void @llvm.memset.p0i8.i64(i8* noundef nonnull align 16 dereferenceable(2500) %8, i8 0, i64 2500, i1 false)
  %9 = call i32 (i8*, ...) @__isoc99_scanf(i8* getelementptr inbounds ([3 x i8], [3 x i8]* @.str, i64 0, i64 0), i32* nonnull %2)
  %10 = call i32 (i8*, ...) @__isoc99_scanf(i8* getelementptr inbounds ([3 x i8], [3 x i8]* @.str.1, i64 0, i64 0), i8* nonnull %7)
  %11 = call i64 @strlen(i8* noundef nonnull %7) #8
  %12 = trunc i64 %11 to i32
  %13 = load i32, i32* %2, align 4, !tbaa !5
  %14 = sub nsw i32 %12, %13
  %15 = icmp slt i32 %14, 0
  br i1 %15, label %177, label %16

16:                                               ; preds = %0
  %17 = icmp sgt i32 %13, 0
  br i1 %17, label %18, label %57

18:                                               ; preds = %16
  %19 = zext i32 %13 to i64
  %20 = add i32 %12, 1
  %21 = sub i32 %20, %13
  %22 = zext i32 %21 to i64
  %23 = add nsw i64 %22, -1
  %24 = and i64 %22, 3
  %25 = icmp ult i64 %23, 3
  br i1 %25, label %45, label %26

26:                                               ; preds = %18
  %27 = and i64 %22, 4294967292
  br label %28

28:                                               ; preds = %28, %26
  %29 = phi i64 [ 0, %26 ], [ %42, %28 ]
  %30 = phi i64 [ %27, %26 ], [ %43, %28 ]
  %31 = getelementptr [500 x [5 x i8]], [500 x [5 x i8]]* %4, i64 0, i64 %29, i64 0
  %32 = getelementptr [500 x i8], [500 x i8]* %3, i64 0, i64 %29
  call void @llvm.memcpy.p0i8.p0i8.i64(i8* align 4 %31, i8* align 4 %32, i64 %19, i1 false)
  %33 = or i64 %29, 1
  %34 = getelementptr [500 x [5 x i8]], [500 x [5 x i8]]* %4, i64 0, i64 %33, i64 0
  %35 = getelementptr [500 x i8], [500 x i8]* %3, i64 0, i64 %33
  call void @llvm.memcpy.p0i8.p0i8.i64(i8* align 1 %34, i8* align 1 %35, i64 %19, i1 false)
  %36 = or i64 %29, 2
  %37 = getelementptr [500 x [5 x i8]], [500 x [5 x i8]]* %4, i64 0, i64 %36, i64 0
  %38 = getelementptr [500 x i8], [500 x i8]* %3, i64 0, i64 %36
  call void @llvm.memcpy.p0i8.p0i8.i64(i8* align 2 %37, i8* align 2 %38, i64 %19, i1 false)
  %39 = or i64 %29, 3
  %40 = getelementptr [500 x [5 x i8]], [500 x [5 x i8]]* %4, i64 0, i64 %39, i64 0
  %41 = getelementptr [500 x i8], [500 x i8]* %3, i64 0, i64 %39
  call void @llvm.memcpy.p0i8.p0i8.i64(i8* align 1 %40, i8* align 1 %41, i64 %19, i1 false)
  %42 = add nuw nsw i64 %29, 4
  %43 = add i64 %30, -4
  %44 = icmp eq i64 %43, 0
  br i1 %44, label %45, label %28, !llvm.loop !9

45:                                               ; preds = %28, %18
  %46 = phi i64 [ 0, %18 ], [ %42, %28 ]
  %47 = icmp eq i64 %24, 0
  br i1 %47, label %56, label %48

48:                                               ; preds = %45, %48
  %49 = phi i64 [ %53, %48 ], [ %46, %45 ]
  %50 = phi i64 [ %54, %48 ], [ %24, %45 ]
  %51 = getelementptr [500 x [5 x i8]], [500 x [5 x i8]]* %4, i64 0, i64 %49, i64 0
  %52 = getelementptr [500 x i8], [500 x i8]* %3, i64 0, i64 %49
  call void @llvm.memcpy.p0i8.p0i8.i64(i8* align 1 %51, i8* align 1 %52, i64 %19, i1 false)
  %53 = add nuw nsw i64 %49, 1
  %54 = add i64 %50, -1
  %55 = icmp eq i64 %54, 0
  br i1 %55, label %56, label %48, !llvm.loop !11

56:                                               ; preds = %48, %45
  br i1 %15, label %177, label %57

57:                                               ; preds = %16, %56
  %58 = zext i32 %14 to i64
  %59 = add i32 %12, 1
  %60 = sub i32 %59, %13
  %61 = zext i32 %60 to i64
  br label %62

62:                                               ; preds = %77, %57
  %63 = phi i64 [ 0, %57 ], [ %78, %77 ]
  %64 = getelementptr inbounds [500 x [5 x i8]], [500 x [5 x i8]]* %4, i64 0, i64 %63, i64 0
  %65 = getelementptr inbounds [500 x i32], [500 x i32]* %1, i64 0, i64 %63
  br label %66

66:                                               ; preds = %62, %74
  %67 = phi i64 [ %63, %62 ], [ %75, %74 ]
  %68 = getelementptr inbounds [500 x [5 x i8]], [500 x [5 x i8]]* %4, i64 0, i64 %67, i64 0
  %69 = call i32 @strcmp(i8* noundef nonnull %64, i8* noundef nonnull %68) #8
  %70 = icmp eq i32 %69, 0
  br i1 %70, label %71, label %74

71:                                               ; preds = %66
  %72 = load i32, i32* %65, align 4, !tbaa !5
  %73 = add nsw i32 %72, 1
  store i32 %73, i32* %65, align 4, !tbaa !5
  br label %74

74:                                               ; preds = %66, %71
  %75 = add nuw nsw i64 %67, 1
  %76 = icmp ult i64 %67, %58
  br i1 %76, label %66, label %77, !llvm.loop !13

77:                                               ; preds = %74
  %78 = add nuw nsw i64 %63, 1
  %79 = icmp eq i64 %78, %61
  br i1 %79, label %80, label %62, !llvm.loop !14

80:                                               ; preds = %77
  %81 = getelementptr inbounds [500 x i32], [500 x i32]* %1, i64 0, i64 0
  %82 = load i32, i32* %81, align 16, !tbaa !5
  br i1 %15, label %172, label %83

83:                                               ; preds = %80
  %84 = add i32 %12, 1
  %85 = sub i32 %84, %13
  %86 = zext i32 %85 to i64
  %87 = icmp eq i32 %85, 1
  br i1 %87, label %172, label %88, !llvm.loop !15

88:                                               ; preds = %83
  %89 = add nsw i64 %86, -1
  %90 = icmp ult i64 %89, 8
  br i1 %90, label %160, label %91

91:                                               ; preds = %88
  %92 = and i64 %89, -8
  %93 = or i64 %92, 1
  %94 = insertelement <4 x i32> poison, i32 %82, i32 0
  %95 = shufflevector <4 x i32> %94, <4 x i32> poison, <4 x i32> zeroinitializer
  %96 = add nsw i64 %92, -8
  %97 = lshr exact i64 %96, 3
  %98 = add nuw nsw i64 %97, 1
  %99 = and i64 %98, 1
  %100 = icmp eq i64 %96, 0
  br i1 %100, label %135, label %101

101:                                              ; preds = %91
  %102 = and i64 %98, 4611686018427387902
  br label %103

103:                                              ; preds = %103, %101
  %104 = phi i64 [ 0, %101 ], [ %130, %103 ]
  %105 = phi <4 x i32> [ %95, %101 ], [ %128, %103 ]
  %106 = phi <4 x i32> [ %95, %101 ], [ %129, %103 ]
  %107 = phi i64 [ %102, %101 ], [ %131, %103 ]
  %108 = or i64 %104, 1
  %109 = getelementptr inbounds [500 x i32], [500 x i32]* %1, i64 0, i64 %108
  %110 = bitcast i32* %109 to <4 x i32>*
  %111 = load <4 x i32>, <4 x i32>* %110, align 4, !tbaa !5
  %112 = getelementptr inbounds i32, i32* %109, i64 4
  %113 = bitcast i32* %112 to <4 x i32>*
  %114 = load <4 x i32>, <4 x i32>* %113, align 4, !tbaa !5
  %115 = icmp sgt <4 x i32> %111, %105
  %116 = icmp sgt <4 x i32> %114, %106
  %117 = select <4 x i1> %115, <4 x i32> %111, <4 x i32> %105
  %118 = select <4 x i1> %116, <4 x i32> %114, <4 x i32> %106
  %119 = or i64 %104, 9
  %120 = getelementptr inbounds [500 x i32], [500 x i32]* %1, i64 0, i64 %119
  %121 = bitcast i32* %120 to <4 x i32>*
  %122 = load <4 x i32>, <4 x i32>* %121, align 4, !tbaa !5
  %123 = getelementptr inbounds i32, i32* %120, i64 4
  %124 = bitcast i32* %123 to <4 x i32>*
  %125 = load <4 x i32>, <4 x i32>* %124, align 4, !tbaa !5
  %126 = icmp sgt <4 x i32> %122, %117
  %127 = icmp sgt <4 x i32> %125, %118
  %128 = select <4 x i1> %126, <4 x i32> %122, <4 x i32> %117
  %129 = select <4 x i1> %127, <4 x i32> %125, <4 x i32> %118
  %130 = add nuw i64 %104, 16
  %131 = add i64 %107, -2
  %132 = icmp eq i64 %131, 0
  br i1 %132, label %133, label %103, !llvm.loop !16

133:                                              ; preds = %103
  %134 = or i64 %130, 1
  br label %135

135:                                              ; preds = %133, %91
  %136 = phi <4 x i32> [ undef, %91 ], [ %128, %133 ]
  %137 = phi <4 x i32> [ undef, %91 ], [ %129, %133 ]
  %138 = phi i64 [ 1, %91 ], [ %134, %133 ]
  %139 = phi <4 x i32> [ %95, %91 ], [ %128, %133 ]
  %140 = phi <4 x i32> [ %95, %91 ], [ %129, %133 ]
  %141 = icmp eq i64 %99, 0
  br i1 %141, label %153, label %142

142:                                              ; preds = %135
  %143 = getelementptr inbounds [500 x i32], [500 x i32]* %1, i64 0, i64 %138
  %144 = bitcast i32* %143 to <4 x i32>*
  %145 = load <4 x i32>, <4 x i32>* %144, align 4, !tbaa !5
  %146 = getelementptr inbounds i32, i32* %143, i64 4
  %147 = bitcast i32* %146 to <4 x i32>*
  %148 = load <4 x i32>, <4 x i32>* %147, align 4, !tbaa !5
  %149 = icmp sgt <4 x i32> %148, %140
  %150 = select <4 x i1> %149, <4 x i32> %148, <4 x i32> %140
  %151 = icmp sgt <4 x i32> %145, %139
  %152 = select <4 x i1> %151, <4 x i32> %145, <4 x i32> %139
  br label %153

153:                                              ; preds = %135, %142
  %154 = phi <4 x i32> [ %136, %135 ], [ %152, %142 ]
  %155 = phi <4 x i32> [ %137, %135 ], [ %150, %142 ]
  %156 = icmp sgt <4 x i32> %154, %155
  %157 = select <4 x i1> %156, <4 x i32> %154, <4 x i32> %155
  %158 = call i32 @llvm.vector.reduce.smax.v4i32(<4 x i32> %157)
  %159 = icmp eq i64 %89, %92
  br i1 %159, label %172, label %160

160:                                              ; preds = %88, %153
  %161 = phi i64 [ 1, %88 ], [ %93, %153 ]
  %162 = phi i32 [ %82, %88 ], [ %158, %153 ]
  br label %163

163:                                              ; preds = %160, %163
  %164 = phi i64 [ %170, %163 ], [ %161, %160 ]
  %165 = phi i32 [ %169, %163 ], [ %162, %160 ]
  %166 = getelementptr inbounds [500 x i32], [500 x i32]* %1, i64 0, i64 %164
  %167 = load i32, i32* %166, align 4, !tbaa !5
  %168 = icmp sgt i32 %167, %165
  %169 = select i1 %168, i32 %167, i32 %165
  %170 = add nuw nsw i64 %164, 1
  %171 = icmp eq i64 %170, %86
  br i1 %171, label %172, label %163, !llvm.loop !18

172:                                              ; preds = %163, %83, %153, %80
  %173 = phi i32 [ %82, %80 ], [ %82, %83 ], [ %158, %153 ], [ %169, %163 ]
  %174 = icmp eq i32 %173, 1
  br i1 %174, label %175, label %177

175:                                              ; preds = %172
  %176 = call i32 @puts(i8* nonnull dereferenceable(1) getelementptr inbounds ([3 x i8], [3 x i8]* @str, i64 0, i64 0))
  br label %204

177:                                              ; preds = %56, %0, %172
  %178 = phi i32 [ %173, %172 ], [ 0, %0 ], [ 0, %56 ]
  %179 = phi i32 [ %82, %172 ], [ 0, %0 ], [ 0, %56 ]
  %180 = call i32 (i8*, ...) @printf(i8* nonnull dereferenceable(1) getelementptr inbounds ([4 x i8], [4 x i8]* @.str.3, i64 0, i64 0), i32 %178)
  %181 = load i32, i32* %2, align 4, !tbaa !5
  %182 = xor i32 %181, -1
  %183 = add i32 %182, %12
  %184 = icmp sgt i32 %183, 0
  br i1 %184, label %185, label %204

185:                                              ; preds = %177, %201
  %186 = phi i32 [ %195, %201 ], [ %181, %177 ]
  %187 = phi i32 [ %203, %201 ], [ %179, %177 ]
  %188 = phi i64 [ %196, %201 ], [ 0, %177 ]
  %189 = icmp eq i32 %187, %178
  br i1 %189, label %190, label %194

190:                                              ; preds = %185
  %191 = getelementptr inbounds [500 x [5 x i8]], [500 x [5 x i8]]* %4, i64 0, i64 %188, i64 0
  %192 = call i32 @puts(i8* nonnull %191)
  %193 = load i32, i32* %2, align 4, !tbaa !5
  br label %194

194:                                              ; preds = %185, %190
  %195 = phi i32 [ %186, %185 ], [ %193, %190 ]
  %196 = add nuw nsw i64 %188, 1
  %197 = xor i32 %195, -1
  %198 = add i32 %197, %12
  %199 = sext i32 %198 to i64
  %200 = icmp slt i64 %196, %199
  br i1 %200, label %201, label %204, !llvm.loop !20

201:                                              ; preds = %194
  %202 = getelementptr inbounds [500 x i32], [500 x i32]* %1, i64 0, i64 %196
  %203 = load i32, i32* %202, align 4, !tbaa !5
  br label %185

204:                                              ; preds = %194, %177, %175
  call void @llvm.lifetime.end.p0i8(i64 2500, i8* nonnull %8) #7
  call void @llvm.lifetime.end.p0i8(i64 500, i8* nonnull %7) #7
  call void @llvm.lifetime.end.p0i8(i64 4, i8* nonnull %6) #7
  call void @llvm.lifetime.end.p0i8(i64 2000, i8* nonnull %5) #7
  ret i32 0
}

; Function Attrs: argmemonly mustprogress nofree nosync nounwind willreturn
declare void @llvm.lifetime.start.p0i8(i64 immarg, i8* nocapture) #1

; Function Attrs: argmemonly mustprogress nofree nounwind willreturn writeonly
declare void @llvm.memset.p0i8.i64(i8* nocapture writeonly, i8, i64, i1 immarg) #2

; Function Attrs: nofree nounwind
declare noundef i32 @__isoc99_scanf(i8* nocapture noundef readonly, ...) local_unnamed_addr #3

; Function Attrs: argmemonly mustprogress nofree nounwind readonly willreturn
declare i64 @strlen(i8* nocapture) local_unnamed_addr #4

; Function Attrs: argmemonly mustprogress nofree nounwind readonly willreturn
declare i32 @strcmp(i8* nocapture, i8* nocapture) local_unnamed_addr #4

; Function Attrs: nofree nounwind
declare noundef i32 @printf(i8* nocapture noundef readonly, ...) local_unnamed_addr #3

; Function Attrs: nofree nounwind
declare noundef i32 @puts(i8* nocapture noundef readonly) local_unnamed_addr #3

; Function Attrs: argmemonly mustprogress nofree nosync nounwind willreturn
declare void @llvm.lifetime.end.p0i8(i64 immarg, i8* nocapture) #1

; Function Attrs: argmemonly nofree nounwind willreturn
declare void @llvm.memcpy.p0i8.p0i8.i64(i8* noalias nocapture writeonly, i8* noalias nocapture readonly, i64, i1 immarg) #5

; Function Attrs: nofree nosync nounwind readnone willreturn
declare i32 @llvm.vector.reduce.smax.v4i32(<4 x i32>) #6


!llvm.module.flags = !{!0, !1, !2, !3}
!llvm.ident = !{!4}

!0 = !{i32 1, !"wchar_size", i32 4}
!1 = !{i32 7, !"PIC Level", i32 2}
!2 = !{i32 7, !"PIE Level", i32 2}
!3 = !{i32 7, !"uwtable", i32 1}
!4 = !{!"clang version 13.0.0"}
!5 = !{!6, !6, i64 0}
!6 = !{!"int", !7, i64 0}
!7 = !{!"omnipotent char", !8, i64 0}
!8 = !{!"Simple C/C++ TBAA"}
!9 = distinct !{!9, !10}
!10 = !{!"llvm.loop.mustprogress"}
!11 = distinct !{!11, !12}
!12 = !{!"llvm.loop.unroll.disable"}
!13 = distinct !{!13, !10}
!14 = distinct !{!14, !10}
!15 = distinct !{!15, !10}
!16 = distinct !{!16, !10, !17}
!17 = !{!"llvm.loop.isvectorized", i32 1}
!18 = distinct !{!18, !10, !19, !17}
!19 = !{!"llvm.loop.unroll.runtime.disable"}
!20 = distinct !{!20, !10}
